; Function Attrs: mustprogress nofree norecurse nosync nounwind willreturn memory(argmem: readwrite) uwtable
define void @fstWriterSetRepackOnClose(ptr noundef captures(address_is_null) %0, i32 noundef %1) local_unnamed_addr #11 {
  %.not = icmp eq ptr %0, null
  br i1 %.not, label %9, label %3

3:                                                ; preds = %2
  %.not3 = icmp eq i32 %1, 0
  %4 = getelementptr inbounds nuw i8, ptr %0, i64 233
  %5 = load i8, ptr %4, align 1
  %6 = select i1 %.not3, i8 0, i8 2
  %7 = and i8 %5, -3
  %8 = or disjoint i8 %7, %6
  store i8 %8, ptr %4, align 1
  br label %9

9:                                                ; preds = %3, %2
  ret void
}